target datalayout = "e-m:e-p270:32:32-p271:32:32-p272:64:64-i64:64-i128:128-f80:128-n8:16:32:64-S128"
target triple = "x86_64-pc-linux-gnu"

%struct.job_record = type { i32, ptr, ptr, ptr, ptr, i16, i32, i32, i32, ptr, i32, ptr, ptr, i16, ptr, double, i64, ptr, ptr, ptr, ptr, ptr, ptr, i32, ptr, i32, i64, i64, i32, i32, ptr, i16, i64, i64, i8, i32, ptr, ptr, ptr, ptr, ptr, ptr, ptr, ptr, i32, ptr, ptr, i32, ptr, i32, ptr, i32, ptr, i32, ptr, ptr, ptr, ptr, ptr, ptr, i32, i16, i64, ptr, ptr, ptr, ptr, %struct.acct_policy_limit_set_t, i16, ptr, ptr, ptr, ptr, ptr, i32, ptr, ptr, ptr, ptr, ptr, i32, i32, ptr, ptr, ptr, i16, ptr, ptr, i8, ptr, ptr, i64, i64, i8, i32, i32, i8, i32, ptr, i32, i64, i32, ptr, ptr, ptr, i8, i16, i64, i32, ptr, ptr, ptr, ptr, ptr, i16, i32, ptr, ptr, ptr, ptr, i32, ptr, i32, i16, i64, ptr, i32, i32, ptr, i64, ptr, ptr, i64, i32, i32, i64, i32, i32, ptr, ptr, ptr, ptr, ptr, ptr, ptr, ptr, ptr, ptr, ptr, ptr, i32, ptr, i16, i16, i16, i16, ptr, i32, i32, i8, i64 }
%struct.acct_policy_limit_set_t = type { i16, i16, ptr }
%struct.slurm_step_id_msg = type { i64, i32, i32, i32 }
%struct.agent_arg_t = type { i32, i16, i32, i8, ptr, ptr, i16, i32, ptr, i16 }
%struct.stepmgr_ops_t = type { ptr, ptr, ptr, ptr, ptr, ptr, ptr, ptr, ptr, ptr }
%struct.step_record_t = type { i32, ptr, ptr, ptr, i32, ptr, ptr, i32, i32, i32, i32, i16, i16, ptr, i16, i32, ptr, i32, ptr, ptr, ptr, ptr, ptr, ptr, ptr, ptr, ptr, i64, i16, i64, i16, ptr, i16, ptr, i32, i64, i32, ptr, i32, i32, %struct.slurm_step_id_msg, ptr, ptr, ptr, ptr, i16, i64, i64, ptr, ptr, ptr, ptr, ptr, ptr, ptr, ptr }
%struct.srun_node_fail_args_t = type { i32, ptr }
%struct.srun_node_fail_msg = type { ptr, %struct.slurm_step_id_msg }

@.str = private unnamed_addr constant [12 x i8] c"srun_comm.c\00", align 1
@__func__._srun_set_addr = private unnamed_addr constant [15 x i8] c"_srun_set_addr\00", align 1
@stepmgr_ops = external global ptr, align 8
@__func__._srun_agent_launch = private unnamed_addr constant [19 x i8] c"_srun_agent_launch\00", align 1
@__func__._srun_node_fail = private unnamed_addr constant [16 x i8] c"_srun_node_fail\00", align 1

; Function Attrs: nounwind uwtable
define internal void @_srun_agent_launch(ptr noundef %0, ptr noundef %1, i32 noundef %2, ptr noundef %3, i32 noundef %4, i16 noundef zeroext %5) #0 {
  %7 = alloca ptr, align 8
  %8 = alloca ptr, align 8
  %9 = alloca i32, align 4
  %10 = alloca ptr, align 8
  %11 = alloca i32, align 4
  %12 = alloca i16, align 2
  %13 = alloca ptr, align 8
  store ptr %0, ptr %7, align 8
  store ptr %1, ptr %8, align 8
  store i32 %2, ptr %9, align 4
  store ptr %3, ptr %10, align 8
  store i32 %4, ptr %11, align 4
  store i16 %5, ptr %12, align 2
  call void @llvm.lifetime.start.p0(i64 8, ptr %13) #6
  %14 = call ptr @slurm_xcalloc(i64 noundef 1, i64 noundef 56, i1 noundef zeroext true, i1 noundef zeroext false, ptr noundef @.str, i32 noundef 61, ptr noundef @__func__._srun_agent_launch)
  store ptr %14, ptr %13, align 8
  %15 = load ptr, ptr %13, align 8
  %16 = getelementptr inbounds nuw %struct.agent_arg_t, ptr %15, i32 0, i32 0
  store i32 1, ptr %16, align 8
  %17 = load ptr, ptr %13, align 8
  %18 = getelementptr inbounds nuw %struct.agent_arg_t, ptr %17, i32 0, i32 1
  store i16 0, ptr %18, align 4
  %19 = load ptr, ptr %7, align 8
  %20 = load ptr, ptr %13, align 8
  %21 = getelementptr inbounds nuw %struct.agent_arg_t, ptr %20, i32 0, i32 4
  store ptr %19, ptr %21, align 8
  %22 = load ptr, ptr %8, align 8
  %23 = call ptr @hostlist_create(ptr noundef %22)
  %24 = load ptr, ptr %13, align 8
  %25 = getelementptr inbounds nuw %struct.agent_arg_t, ptr %24, i32 0, i32 5
  store ptr %23, ptr %25, align 8
  %26 = load i32, ptr %9, align 4
  %27 = load ptr, ptr %13, align 8
  %28 = getelementptr inbounds nuw %struct.agent_arg_t, ptr %27, i32 0, i32 7
  store i32 %26, ptr %28, align 4
  %29 = load ptr, ptr %10, align 8
  %30 = load ptr, ptr %13, align 8
  %31 = getelementptr inbounds nuw %struct.agent_arg_t, ptr %30, i32 0, i32 8
  store ptr %29, ptr %31, align 8
  %32 = load ptr, ptr %13, align 8
  %33 = load i32, ptr %11, align 4
  call void @set_agent_arg_r_uid(ptr noundef %32, i32 noundef %33)
  %34 = load i16, ptr %12, align 2
  %35 = zext i16 %34 to i32
  %36 = icmp slt i32 11008, %35
  br i1 %36, label %37, label %38

37:                                               ; preds = %6
  br label %41

38:                                               ; preds = %6
  %39 = load i16, ptr %12, align 2
  %40 = zext i16 %39 to i32
  br label %41

41:                                               ; preds = %38, %37
  %42 = phi i32 [ 11008, %37 ], [ %40, %38 ]
  %43 = trunc i32 %42 to i16
  %44 = load ptr, ptr %13, align 8
  %45 = getelementptr inbounds nuw %struct.agent_arg_t, ptr %44, i32 0, i32 6
  store i16 %43, ptr %45, align 8
  %46 = load ptr, ptr @stepmgr_ops, align 8
  %47 = getelementptr inbounds nuw %struct.stepmgr_ops_t, ptr %46, i32 0, i32 8
  %48 = load ptr, ptr %47, align 8
  %49 = load ptr, ptr %13, align 8
  call void %48(ptr noundef %49)
  call void @llvm.lifetime.end.p0(i64 8, ptr %13) #6
  ret void
}

; Function Attrs: nounwind uwtable
define dso_local ptr @_srun_set_addr(ptr noundef %0) #0 {
  %2 = alloca ptr, align 8
  %3 = alloca ptr, align 8
  %4 = alloca ptr, align 8
  store ptr %0, ptr %2, align 8
  call void @llvm.lifetime.start.p0(i64 8, ptr %3) #6
  call void @llvm.lifetime.start.p0(i64 8, ptr %4) #6
  %5 = call ptr @slurm_xcalloc(i64 noundef 1, i64 noundef 128, i1 noundef zeroext true, i1 noundef zeroext false, ptr noundef @.str, i32 noundef 114, ptr noundef @__func__._srun_set_addr)
  store ptr %5, ptr %4, align 8
  %6 = load ptr, ptr %2, align 8
  %7 = getelementptr inbounds nuw %struct.step_record_t, ptr %6, i32 0, i32 20
  %8 = load ptr, ptr %7, align 8
  %9 = call ptr @slurm_conf_get_nodeaddr(ptr noundef %8)
  store ptr %9, ptr %3, align 8
  %10 = icmp ne ptr %9, null
  br i1 %10, label %11, label %17

11:                                               ; preds = %1
  %12 = load ptr, ptr %4, align 8
  %13 = load ptr, ptr %2, align 8
  %14 = getelementptr inbounds nuw %struct.step_record_t, ptr %13, i32 0, i32 28
  %15 = load i16, ptr %14, align 8
  %16 = load ptr, ptr %3, align 8
  call void @slurm_set_addr(ptr noundef %12, i16 noundef zeroext %15, ptr noundef %16)
  call void @slurm_xfree(ptr noundef %3)
  br label %25

17:                                               ; preds = %1
  %18 = load ptr, ptr %4, align 8
  %19 = load ptr, ptr %2, align 8
  %20 = getelementptr inbounds nuw %struct.step_record_t, ptr %19, i32 0, i32 28
  %21 = load i16, ptr %20, align 8
  %22 = load ptr, ptr %2, align 8
  %23 = getelementptr inbounds nuw %struct.step_record_t, ptr %22, i32 0, i32 20
  %24 = load ptr, ptr %23, align 8
  call void @slurm_set_addr(ptr noundef %18, i16 noundef zeroext %21, ptr noundef %24)
  br label %25

25:                                               ; preds = %17, %11
  %26 = load ptr, ptr %4, align 8
  call void @llvm.lifetime.end.p0(i64 8, ptr %4) #6
  call void @llvm.lifetime.end.p0(i64 8, ptr %3) #6
  ret ptr %26
}

; Function Attrs: nounwind uwtable
define internal i32 @_srun_node_fail(ptr noundef %0, ptr noundef %1) #0 {
  %3 = alloca i32, align 4
  %4 = alloca ptr, align 8
  %5 = alloca ptr, align 8
  %6 = alloca ptr, align 8
  %7 = alloca ptr, align 8
  %8 = alloca ptr, align 8
  %9 = alloca ptr, align 8
  %10 = alloca i32, align 4
  store ptr %0, ptr %4, align 8
  store ptr %1, ptr %5, align 8
  call void @llvm.lifetime.start.p0(i64 8, ptr %6) #6
  %11 = load ptr, ptr %4, align 8
  store ptr %11, ptr %6, align 8
  call void @llvm.lifetime.start.p0(i64 8, ptr %7) #6
  %12 = load ptr, ptr %5, align 8
  store ptr %12, ptr %7, align 8
  call void @llvm.lifetime.start.p0(i64 8, ptr %8) #6
  call void @llvm.lifetime.start.p0(i64 8, ptr %9) #6
  %13 = load ptr, ptr %6, align 8
  %14 = getelementptr inbounds nuw %struct.step_record_t, ptr %13, i32 0, i32 42
  %15 = load ptr, ptr %14, align 8
  %16 = icmp ne ptr %15, null
  br i1 %16, label %18, label %17

17:                                               ; preds = %2
  store i32 0, ptr %3, align 4
  store i32 1, ptr %10, align 4
  br label %87

18:                                               ; preds = %2
  %19 = load ptr, ptr %6, align 8
  %20 = getelementptr inbounds nuw %struct.step_record_t, ptr %19, i32 0, i32 40
  %21 = getelementptr inbounds nuw %struct.slurm_step_id_msg, ptr %20, i32 0, i32 3
  %22 = load i32, ptr %21, align 8
  %23 = icmp eq i32 %22, -5
  br i1 %23, label %24, label %25

24:                                               ; preds = %18
  store i32 0, ptr %3, align 4
  store i32 1, ptr %10, align 4
  br label %87

25:                                               ; preds = %18
  %26 = load ptr, ptr %7, align 8
  %27 = getelementptr inbounds nuw %struct.srun_node_fail_args_t, ptr %26, i32 0, i32 0
  %28 = load i32, ptr %27, align 8
  %29 = icmp sge i32 %28, 0
  br i1 %29, label %30, label %41

30:                                               ; preds = %25
  %31 = load ptr, ptr %6, align 8
  %32 = getelementptr inbounds nuw %struct.step_record_t, ptr %31, i32 0, i32 42
  %33 = load ptr, ptr %32, align 8
  %34 = load ptr, ptr %7, align 8
  %35 = getelementptr inbounds nuw %struct.srun_node_fail_args_t, ptr %34, i32 0, i32 0
  %36 = load i32, ptr %35, align 8
  %37 = sext i32 %36 to i64
  %38 = call i32 @slurm_bit_test(ptr noundef %33, i64 noundef %37)
  %39 = icmp ne i32 %38, 0
  br i1 %39, label %41, label %40

40:                                               ; preds = %30
  store i32 0, ptr %3, align 4
  store i32 1, ptr %10, align 4
  br label %87

41:                                               ; preds = %30, %25
  %42 = load ptr, ptr %6, align 8
  %43 = getelementptr inbounds nuw %struct.step_record_t, ptr %42, i32 0, i32 28
  %44 = load i16, ptr %43, align 8
  %45 = icmp ne i16 %44, 0
  br i1 %45, label %46, label %59

46:                                               ; preds = %41
  %47 = load ptr, ptr %6, align 8
  %48 = getelementptr inbounds nuw %struct.step_record_t, ptr %47, i32 0, i32 20
  %49 = load ptr, ptr %48, align 8
  %50 = icmp ne ptr %49, null
  br i1 %50, label %51, label %59

51:                                               ; preds = %46
  %52 = load ptr, ptr %6, align 8
  %53 = getelementptr inbounds nuw %struct.step_record_t, ptr %52, i32 0, i32 20
  %54 = load ptr, ptr %53, align 8
  %55 = getelementptr inbounds i8, ptr %54, i64 0
  %56 = load i8, ptr %55, align 1
  %57 = sext i8 %56 to i32
  %58 = icmp eq i32 %57, 0
  br i1 %58, label %59, label %60

59:                                               ; preds = %51, %46, %41
  store i32 0, ptr %3, align 4
  store i32 1, ptr %10, align 4
  br label %87

60:                                               ; preds = %51
  %61 = load ptr, ptr %6, align 8
  %62 = call ptr @_srun_set_addr(ptr noundef %61)
  store ptr %62, ptr %8, align 8
  %63 = call ptr @slurm_xcalloc(i64 noundef 1, i64 noundef 32, i1 noundef zeroext true, i1 noundef zeroext false, ptr noundef @.str, i32 noundef 144, ptr noundef @__func__._srun_node_fail)
  store ptr %63, ptr %9, align 8
  %64 = load ptr, ptr %9, align 8
  %65 = getelementptr inbounds nuw %struct.srun_node_fail_msg, ptr %64, i32 0, i32 1
  %66 = load ptr, ptr %6, align 8
  %67 = getelementptr inbounds nuw %struct.step_record_t, ptr %66, i32 0, i32 40
  call void @llvm.memcpy.p0.p0.i64(ptr align 8 %65, ptr align 8 %67, i64 24, i1 false)
  %68 = load ptr, ptr %7, align 8
  %69 = getelementptr inbounds nuw %struct.srun_node_fail_args_t, ptr %68, i32 0, i32 1
  %70 = load ptr, ptr %69, align 8
  %71 = call ptr @xstrdup(ptr noundef %70)
  %72 = load ptr, ptr %9, align 8
  %73 = getelementptr inbounds nuw %struct.srun_node_fail_msg, ptr %72, i32 0, i32 0
  store ptr %71, ptr %73, align 8
  %74 = load ptr, ptr %8, align 8
  %75 = load ptr, ptr %6, align 8
  %76 = getelementptr inbounds nuw %struct.step_record_t, ptr %75, i32 0, i32 20
  %77 = load ptr, ptr %76, align 8
  %78 = load ptr, ptr %9, align 8
  %79 = load ptr, ptr %6, align 8
  %80 = getelementptr inbounds nuw %struct.step_record_t, ptr %79, i32 0, i32 21
  %81 = load ptr, ptr %80, align 8
  %82 = getelementptr inbounds nuw %struct.job_record, ptr %81, i32 0, i32 150
  %83 = load i32, ptr %82, align 8
  %84 = load ptr, ptr %6, align 8
  %85 = getelementptr inbounds nuw %struct.step_record_t, ptr %84, i32 0, i32 30
  %86 = load i16, ptr %85, align 8
  call void @_srun_agent_launch(ptr noundef %74, ptr noundef %77, i32 noundef 7003, ptr noundef %78, i32 noundef %83, i16 noundef zeroext %86)
  store i32 0, ptr %3, align 4
  store i32 1, ptr %10, align 4
  br label %87

87:                                               ; preds = %60, %59, %40, %24, %17
  call void @llvm.lifetime.end.p0(i64 8, ptr %9) #6
  call void @llvm.lifetime.end.p0(i64 8, ptr %8) #6
  call void @llvm.lifetime.end.p0(i64 8, ptr %7) #6
  call void @llvm.lifetime.end.p0(i64 8, ptr %6) #6
  %88 = load i32, ptr %3, align 4
  ret i32 %88
}