; Function Attrs: nounwind uwtable
define internal noundef i32 @_srun_node_fail(ptr noundef readonly captures(none) %0, ptr noundef readonly captures(none) %1) #0 {
  %3 = alloca ptr, align 8
  %4 = getelementptr inbounds nuw i8, ptr %0, i64 312
  %5 = load ptr, ptr %4, align 8
  %.not = icmp eq ptr %5, null
  br i1 %.not, label %58, label %6

6:                                                ; preds = %2
  %7 = getelementptr inbounds nuw i8, ptr %0, i64 280
  %8 = getelementptr inbounds nuw i8, ptr %0, i64 296
  %9 = load i32, ptr %8, align 8
  %10 = icmp eq i32 %9, -5
  br i1 %10, label %58, label %11

11:                                               ; preds = %6
  %12 = load i32, ptr %1, align 8
  %13 = icmp sgt i32 %12, -1
  br i1 %13, label %14, label %17

14:                                               ; preds = %11
  %15 = zext nneg i32 %12 to i64
  %16 = tail call i32 @slurm_bit_test(ptr noundef nonnull %5, i64 noundef %15) #6
  %.not22 = icmp eq i32 %16, 0
  br i1 %.not22, label %58, label %17

17:                                               ; preds = %14, %11
  %18 = getelementptr inbounds nuw i8, ptr %0, i64 192
  %19 = load i16, ptr %18, align 8
  %.not23 = icmp eq i16 %19, 0
  br i1 %.not23, label %58, label %20

20:                                               ; preds = %17
  %21 = getelementptr inbounds nuw i8, ptr %0, i64 128
  %22 = load ptr, ptr %21, align 8
  %.not24 = icmp eq ptr %22, null
  br i1 %.not24, label %58, label %23

23:                                               ; preds = %20
  %24 = load i8, ptr %22, align 1
  %25 = icmp eq i8 %24, 0
  br i1 %25, label %58, label %26

26:                                               ; preds = %23
  call void @llvm.lifetime.start.p0(i64 8, ptr nonnull %3) #6
  %27 = tail call ptr @slurm_xcalloc(i64 noundef 1, i64 noundef 128, i1 noundef zeroext true, i1 noundef zeroext false, ptr noundef nonnull @.str, i32 noundef 114, ptr noundef nonnull @__func__._srun_set_addr) #6
  %28 = load ptr, ptr %21, align 8
  %29 = tail call ptr @slurm_conf_get_nodeaddr(ptr noundef %28) #6
  store ptr %29, ptr %3, align 8
  %.not.i = icmp eq ptr %29, null
  %30 = load i16, ptr %18, align 8
  br i1 %.not.i, label %32, label %31

31:                                               ; preds = %26
  tail call void @slurm_set_addr(ptr noundef %27, i16 noundef zeroext %30, ptr noundef nonnull %29) #6
  call void @slurm_xfree(ptr noundef nonnull %3) #6
  br label %_srun_set_addr.exit

32:                                               ; preds = %26
  %33 = load ptr, ptr %21, align 8
  tail call void @slurm_set_addr(ptr noundef %27, i16 noundef zeroext %30, ptr noundef %33) #6
  br label %_srun_set_addr.exit

_srun_set_addr.exit:                              ; preds = %31, %32
  call void @llvm.lifetime.end.p0(i64 8, ptr nonnull %3) #6
  %34 = call ptr @slurm_xcalloc(i64 noundef 1, i64 noundef 32, i1 noundef zeroext true, i1 noundef zeroext false, ptr noundef nonnull @.str, i32 noundef 144, ptr noundef nonnull @__func__._srun_node_fail) #6
  %35 = getelementptr inbounds nuw i8, ptr %34, i64 8
  call void @llvm.memcpy.p0.p0.i64(ptr noundef nonnull align 8 dereferenceable(24) %35, ptr noundef nonnull align 8 dereferenceable(24) %7, i64 24, i1 false)
  %36 = getelementptr inbounds nuw i8, ptr %1, i64 8
  %37 = load ptr, ptr %36, align 8
  %38 = call ptr @xstrdup(ptr noundef %37) #6
  store ptr %38, ptr %34, align 8
  %39 = load ptr, ptr %21, align 8
  %40 = getelementptr inbounds nuw i8, ptr %0, i64 136
  %41 = load ptr, ptr %40, align 8
  %42 = getelementptr inbounds nuw i8, ptr %41, i64 1096
  %43 = load i32, ptr %42, align 8
  %44 = getelementptr inbounds nuw i8, ptr %0, i64 208
  %45 = load i16, ptr %44, align 8
  %46 = call ptr @slurm_xcalloc(i64 noundef 1, i64 noundef 56, i1 noundef zeroext true, i1 noundef zeroext false, ptr noundef nonnull @.str, i32 noundef 61, ptr noundef nonnull @__func__._srun_agent_launch) #6
  store i32 1, ptr %46, align 8
  %47 = getelementptr inbounds nuw i8, ptr %46, i64 4
  store i16 0, ptr %47, align 4
  %48 = getelementptr inbounds nuw i8, ptr %46, i64 16
  store ptr %27, ptr %48, align 8
  %49 = call ptr @hostlist_create(ptr noundef %39) #6
  %50 = getelementptr inbounds nuw i8, ptr %46, i64 24
  store ptr %49, ptr %50, align 8
  %51 = getelementptr inbounds nuw i8, ptr %46, i64 36
  store i32 7003, ptr %51, align 4
  %52 = getelementptr inbounds nuw i8, ptr %46, i64 40
  store ptr %34, ptr %52, align 8
  call void @set_agent_arg_r_uid(ptr noundef nonnull %46, i32 noundef %43) #6
  %53 = call i16 @llvm.umin.i16(i16 %45, i16 11008)
  %54 = getelementptr inbounds nuw i8, ptr %46, i64 32
  store i16 %53, ptr %54, align 8
  %55 = load ptr, ptr @stepmgr_ops, align 8
  %56 = getelementptr inbounds nuw i8, ptr %55, i64 64
  %57 = load ptr, ptr %56, align 8
  call void %57(ptr noundef nonnull %46) #6
  br label %58

58:                                               ; preds = %17, %20, %23, %14, %6, %2, %_srun_set_addr.exit
  ret i32 0
}